target datalayout = "e-m:e-p270:32:32-p271:32:32-p272:64:64-i64:64-i128:128-f80:128-n8:16:32:64-S128"
target triple = "x86_64-unknown-linux-gnu"

; Function Attrs: mustprogress nounwind uwtable
define linkonce_odr hidden noundef zeroext i16 @_ZN3dpx9SwapBytesItEET_RS1_(ptr noundef nonnull align 2 dereferenceable(2) %value) #1 comdat {
entry:
  %value.addr = alloca ptr, align 8
  %p = alloca ptr, align 8
  %c = alloca i8, align 1
  store ptr %value, ptr %value.addr, align 8
  %0 = load ptr, ptr %value.addr, align 8
  store ptr %0, ptr %p, align 8
  %1 = load ptr, ptr %p, align 8
  %arrayidx = getelementptr inbounds i8, ptr %1, i64 0
  %2 = load i8, ptr %arrayidx, align 1
  store i8 %2, ptr %c, align 1
  %3 = load ptr, ptr %p, align 8
  %arrayidx1 = getelementptr inbounds i8, ptr %3, i64 1
  %4 = load i8, ptr %arrayidx1, align 1
  %5 = load ptr, ptr %p, align 8
  %arrayidx2 = getelementptr inbounds i8, ptr %5, i64 0
  store i8 %4, ptr %arrayidx2, align 1
  %6 = load i8, ptr %c, align 1
  %7 = load ptr, ptr %p, align 8
  %arrayidx3 = getelementptr inbounds i8, ptr %7, i64 1
  store i8 %6, ptr %arrayidx3, align 1
  %8 = load ptr, ptr %value.addr, align 8
  %9 = load i16, ptr %8, align 2
  ret i16 %9
}

; Function Attrs: mustprogress nounwind uwtable
define linkonce_odr hidden noundef i32 @_ZN3dpx9SwapBytesIjEET_RS1_(ptr noundef nonnull align 4 dereferenceable(4) %value) #1 comdat {
entry:
  %value.addr = alloca ptr, align 8
  %pe = alloca ptr, align 8
  %ps = alloca ptr, align 8
  %c = alloca i8, align 1
  %s = alloca i64, align 8
  %i = alloca i64, align 8
  store ptr %value, ptr %value.addr, align 8
  %0 = load ptr, ptr %value.addr, align 8
  store ptr %0, ptr %ps, align 8
  store i64 4, ptr %s, align 8
  %1 = load ptr, ptr %ps, align 8
  %2 = load i64, ptr %s, align 8
  %add.ptr = getelementptr inbounds i8, ptr %1, i64 %2
  %add.ptr1 = getelementptr inbounds i8, ptr %add.ptr, i64 -1
  store ptr %add.ptr1, ptr %pe, align 8
  %3 = load i64, ptr %s, align 8
  %div = udiv i64 %3, 2
  store i64 %div, ptr %i, align 8
  br label %for.cond

for.cond:                                         ; preds = %for.inc, %entry
  %4 = load i64, ptr %i, align 8
  %cmp = icmp ugt i64 %4, 0
  br i1 %cmp, label %for.body, label %for.end

for.body:                                         ; preds = %for.cond
  %5 = load ptr, ptr %ps, align 8
  %6 = load i8, ptr %5, align 1
  store i8 %6, ptr %c, align 1
  %7 = load ptr, ptr %pe, align 8
  %8 = load i8, ptr %7, align 1
  %9 = load ptr, ptr %ps, align 8
  store i8 %8, ptr %9, align 1
  %10 = load i8, ptr %c, align 1
  %11 = load ptr, ptr %pe, align 8
  store i8 %10, ptr %11, align 1
  %12 = load ptr, ptr %ps, align 8
  %incdec.ptr = getelementptr inbounds i8, ptr %12, i32 1
  store ptr %incdec.ptr, ptr %ps, align 8
  %13 = load ptr, ptr %pe, align 8
  %incdec.ptr2 = getelementptr inbounds i8, ptr %13, i32 -1
  store ptr %incdec.ptr2, ptr %pe, align 8
  br label %for.inc

for.inc:                                          ; preds = %for.body
  %14 = load i64, ptr %i, align 8
  %dec = add i64 %14, -1
  store i64 %dec, ptr %i, align 8
  br label %for.cond, !llvm.loop !4

for.end:                                          ; preds = %for.cond
  %15 = load ptr, ptr %value.addr, align 8
  %16 = load i32, ptr %15, align 4
  ret i32 %16
}

; Function Attrs: mustprogress uwtable
define linkonce_odr hidden void @_ZN3dpx10SwapBufferItEEvPT_j(ptr noundef %buf, i32 noundef %len) #6 comdat {
entry:
  %buf.addr = alloca ptr, align 8
  %len.addr = alloca i32, align 4
  %i = alloca i32, align 4
  store ptr %buf, ptr %buf.addr, align 8
  store i32 %len, ptr %len.addr, align 4
  store i32 0, ptr %i, align 4
  br label %for.cond

for.cond:                                         ; preds = %for.inc, %entry
  %0 = load i32, ptr %i, align 4
  %1 = load i32, ptr %len.addr, align 4
  %cmp = icmp ult i32 %0, %1
  br i1 %cmp, label %for.body, label %for.end

for.body:                                         ; preds = %for.cond
  %2 = load ptr, ptr %buf.addr, align 8
  %3 = load i32, ptr %i, align 4
  %idxprom = zext i32 %3 to i64
  %arrayidx = getelementptr inbounds i16, ptr %2, i64 %idxprom
  %call = call noundef zeroext i16 @_ZN3dpx9SwapBytesItEET_RS1_(ptr noundef nonnull align 2 dereferenceable(2) %arrayidx)
  br label %for.inc

for.inc:                                          ; preds = %for.body
  %4 = load i32, ptr %i, align 4
  %inc = add i32 %4, 1
  store i32 %inc, ptr %i, align 4
  br label %for.cond, !llvm.loop !23

for.end:                                          ; preds = %for.cond
  ret void
}

; Function Attrs: mustprogress uwtable
define linkonce_odr hidden void @_ZN3dpx10SwapBufferIjEEvPT_j(ptr noundef %buf, i32 noundef %len) #6 comdat {
entry:
  %buf.addr = alloca ptr, align 8
  %len.addr = alloca i32, align 4
  %i = alloca i32, align 4
  store ptr %buf, ptr %buf.addr, align 8
  store i32 %len, ptr %len.addr, align 4
  store i32 0, ptr %i, align 4
  br label %for.cond

for.cond:                                         ; preds = %for.inc, %entry
  %0 = load i32, ptr %i, align 4
  %1 = load i32, ptr %len.addr, align 4
  %cmp = icmp ult i32 %0, %1
  br i1 %cmp, label %for.body, label %for.end

for.body:                                         ; preds = %for.cond
  %2 = load ptr, ptr %buf.addr, align 8
  %3 = load i32, ptr %i, align 4
  %idxprom = zext i32 %3 to i64
  %arrayidx = getelementptr inbounds i32, ptr %2, i64 %idxprom
  %call = call noundef i32 @_ZN3dpx9SwapBytesIjEET_RS1_(ptr noundef nonnull align 4 dereferenceable(4) %arrayidx)
  br label %for.inc

for.inc:                                          ; preds = %for.body
  %4 = load i32, ptr %i, align 4
  %inc = add i32 %4, 1
  store i32 %inc, ptr %i, align 4
  br label %for.cond, !llvm.loop !22

for.end:                                          ; preds = %for.cond
  ret void
}

; Function Attrs: mustprogress uwtable
define linkonce_odr hidden void @_ZN3dpx21EndianSwapImageBufferILNS_8DataSizeE1EEEvPvi(ptr noundef %data, i32 noundef %length) #6 comdat {
entry:
  %data.addr = alloca ptr, align 8
  %length.addr = alloca i32, align 4
  store ptr %data, ptr %data.addr, align 8
  store i32 %length, ptr %length.addr, align 4
  %0 = load ptr, ptr %data.addr, align 8
  %1 = load i32, ptr %length.addr, align 4
  call void @_ZN3dpx10SwapBufferItEEvPT_j(ptr noundef %0, i32 noundef %1)
  ret void
}

; Function Attrs: mustprogress uwtable
define linkonce_odr hidden void @_ZN3dpx21EndianSwapImageBufferILNS_8DataSizeE2EEEvPvi(ptr noundef %data, i32 noundef %length) #6 comdat {
entry:
  %data.addr = alloca ptr, align 8
  %length.addr = alloca i32, align 4
  store ptr %data, ptr %data.addr, align 8
  store i32 %length, ptr %length.addr, align 4
  %0 = load ptr, ptr %data.addr, align 8
  %1 = load i32, ptr %length.addr, align 4
  call void @_ZN3dpx10SwapBufferIjEEvPT_j(ptr noundef %0, i32 noundef %1)
  ret void
}

; Function Attrs: mustprogress uwtable
define hidden void @_ZN3dpx16EndianBufferSwapEiNS_7PackingEPvm(i32 noundef %bitdepth, i32 noundef %packing, ptr noundef %buf, i64 noundef %size) #6 {
entry:
  %bitdepth.addr = alloca i32, align 4
  %packing.addr = alloca i32, align 4
  %buf.addr = alloca ptr, align 8
  %size.addr = alloca i64, align 8
  store i32 %bitdepth, ptr %bitdepth.addr, align 4
  store i32 %packing, ptr %packing.addr, align 4
  store ptr %buf, ptr %buf.addr, align 8
  store i64 %size, ptr %size.addr, align 8
  %0 = load i32, ptr %bitdepth.addr, align 4
  switch i32 %0, label %sw.default [
    i32 8, label %sw.bb
    i32 12, label %sw.bb1
    i32 16, label %sw.bb4
  ]

sw.bb:                                            ; preds = %entry
  br label %sw.epilog

sw.bb1:                                           ; preds = %entry
  %1 = load i32, ptr %packing.addr, align 4
  %cmp = icmp eq i32 %1, 0
  br i1 %cmp, label %if.then, label %if.else

if.then:                                          ; preds = %sw.bb1
  %2 = load ptr, ptr %buf.addr, align 8
  %3 = load i64, ptr %size.addr, align 8
  %div = udiv i64 %3, 4
  %conv = trunc i64 %div to i32
  call void @_ZN3dpx21EndianSwapImageBufferILNS_8DataSizeE2EEEvPvi(ptr noundef %2, i32 noundef %conv)
  br label %if.end

if.else:                                          ; preds = %sw.bb1
  %4 = load ptr, ptr %buf.addr, align 8
  %5 = load i64, ptr %size.addr, align 8
  %div2 = udiv i64 %5, 2
  %conv3 = trunc i64 %div2 to i32
  call void @_ZN3dpx21EndianSwapImageBufferILNS_8DataSizeE1EEEvPvi(ptr noundef %4, i32 noundef %conv3)
  br label %if.end

if.end:                                           ; preds = %if.else, %if.then
  br label %sw.epilog

sw.bb4:                                           ; preds = %entry
  %6 = load ptr, ptr %buf.addr, align 8
  %7 = load i64, ptr %size.addr, align 8
  %div5 = udiv i64 %7, 2
  %conv6 = trunc i64 %div5 to i32
  call void @_ZN3dpx21EndianSwapImageBufferILNS_8DataSizeE1EEEvPvi(ptr noundef %6, i32 noundef %conv6)
  br label %sw.epilog

sw.default:                                       ; preds = %entry
  %8 = load ptr, ptr %buf.addr, align 8
  %9 = load i64, ptr %size.addr, align 8
  %div7 = udiv i64 %9, 4
  %conv8 = trunc i64 %div7 to i32
  call void @_ZN3dpx21EndianSwapImageBufferILNS_8DataSizeE2EEEvPvi(ptr noundef %8, i32 noundef %conv8)
  br label %sw.epilog

sw.epilog:                                        ; preds = %sw.default, %sw.bb4, %if.end, %sw.bb
  ret void
}