; Function Attrs: mustprogress nofree norecurse nosync nounwind memory(readwrite, inaccessiblemem: none) uwtable
define hidden void @_ZN3dpx16EndianBufferSwapEiNS_7PackingEPvm(i32 noundef %bitdepth, i32 noundef %packing, ptr nocapture noundef %buf, i64 noundef %size) local_unnamed_addr #4 {
entry:
  switch i32 %bitdepth, label %sw.default [
    i32 8, label %sw.epilog
    i32 12, label %sw.bb1
    i32 16, label %sw.bb4
  ]

sw.bb1:                                           ; preds = %entry
  %cmp = icmp eq i32 %packing, 0
  br i1 %cmp, label %if.then, label %if.else

if.then:                                          ; preds = %sw.bb1
  %0 = and i64 %size, 17179869180
  %cmp3.not.i.i = icmp eq i64 %0, 0
  br i1 %cmp3.not.i.i, label %sw.epilog, label %for.body.preheader.i.i

for.body.preheader.i.i:                           ; preds = %if.then
  %div9 = lshr i64 %size, 2
  %wide.trip.count.i.i = and i64 %div9, 4294967295
  br label %for.body.i.i

for.body.i.i:                                     ; preds = %_ZN3dpx9SwapBytesIjEET_RS1_.exit.i.i, %for.body.preheader.i.i
  %indvars.iv.i.i = phi i64 [ 0, %for.body.preheader.i.i ], [ %indvars.iv.next.i.i, %_ZN3dpx9SwapBytesIjEET_RS1_.exit.i.i ]
  %arrayidx.i.i = getelementptr inbounds i32, ptr %buf, i64 %indvars.iv.i.i
  %add.ptr1.i.i.i = getelementptr inbounds i8, ptr %arrayidx.i.i, i64 3
  br label %for.body.i.i.i

for.body.i.i.i:                                   ; preds = %for.body.i.i.i, %for.body.i.i
  %i.011.i.i.i = phi i64 [ 2, %for.body.i.i ], [ %dec.i.i.i, %for.body.i.i.i ]
  %pe.010.i.i.i = phi ptr [ %add.ptr1.i.i.i, %for.body.i.i ], [ %incdec.ptr2.i.i.i, %for.body.i.i.i ]
  %ps.09.i.i.i = phi ptr [ %arrayidx.i.i, %for.body.i.i ], [ %incdec.ptr.i.i.i, %for.body.i.i.i ]
  %1 = load i8, ptr %ps.09.i.i.i, align 1
  %2 = load i8, ptr %pe.010.i.i.i, align 1
  store i8 %2, ptr %ps.09.i.i.i, align 1
  store i8 %1, ptr %pe.010.i.i.i, align 1
  %incdec.ptr.i.i.i = getelementptr inbounds i8, ptr %ps.09.i.i.i, i64 1
  %incdec.ptr2.i.i.i = getelementptr inbounds i8, ptr %pe.010.i.i.i, i64 -1
  %dec.i.i.i = add nsw i64 %i.011.i.i.i, -1
  %cmp.not.i.i.i = icmp eq i64 %dec.i.i.i, 0
  br i1 %cmp.not.i.i.i, label %_ZN3dpx9SwapBytesIjEET_RS1_.exit.i.i, label %for.body.i.i.i, !llvm.loop !4

_ZN3dpx9SwapBytesIjEET_RS1_.exit.i.i:             ; preds = %for.body.i.i.i
  %indvars.iv.next.i.i = add nuw nsw i64 %indvars.iv.i.i, 1
  %exitcond.not.i.i = icmp eq i64 %indvars.iv.next.i.i, %wide.trip.count.i.i
  br i1 %exitcond.not.i.i, label %sw.epilog, label %for.body.i.i, !llvm.loop !6

if.else:                                          ; preds = %sw.bb1
  %3 = and i64 %size, 8589934590
  %cmp3.not.i.i11 = icmp eq i64 %3, 0
  br i1 %cmp3.not.i.i11, label %sw.epilog, label %for.body.preheader.i.i12

for.body.preheader.i.i12:                         ; preds = %if.else
  %div28 = lshr i64 %size, 1
  %wide.trip.count.i.i13 = and i64 %div28, 4294967295
  br label %for.body.i.i14

for.body.i.i14:                                   ; preds = %for.body.i.i14, %for.body.preheader.i.i12
  %indvars.iv.i.i15 = phi i64 [ 0, %for.body.preheader.i.i12 ], [ %indvars.iv.next.i.i17, %for.body.i.i14 ]
  %arrayidx.i.i16 = getelementptr inbounds i16, ptr %buf, i64 %indvars.iv.i.i15
  %4 = load i8, ptr %arrayidx.i.i16, align 1
  %arrayidx1.i.i.i = getelementptr inbounds i8, ptr %arrayidx.i.i16, i64 1
  %5 = load i8, ptr %arrayidx1.i.i.i, align 1
  store i8 %5, ptr %arrayidx.i.i16, align 1
  store i8 %4, ptr %arrayidx1.i.i.i, align 1
  %indvars.iv.next.i.i17 = add nuw nsw i64 %indvars.iv.i.i15, 1
  %exitcond.not.i.i18 = icmp eq i64 %indvars.iv.next.i.i17, %wide.trip.count.i.i13
  br i1 %exitcond.not.i.i18, label %sw.epilog, label %for.body.i.i14, !llvm.loop !7

sw.bb4:                                           ; preds = %entry
  %6 = and i64 %size, 8589934590
  %cmp3.not.i.i19 = icmp eq i64 %6, 0
  br i1 %cmp3.not.i.i19, label %sw.epilog, label %for.body.preheader.i.i20

for.body.preheader.i.i20:                         ; preds = %sw.bb4
  %div57 = lshr i64 %size, 1
  %wide.trip.count.i.i21 = and i64 %div57, 4294967295
  br label %for.body.i.i22

for.body.i.i22:                                   ; preds = %for.body.i.i22, %for.body.preheader.i.i20
  %indvars.iv.i.i23 = phi i64 [ 0, %for.body.preheader.i.i20 ], [ %indvars.iv.next.i.i26, %for.body.i.i22 ]
  %arrayidx.i.i24 = getelementptr inbounds i16, ptr %buf, i64 %indvars.iv.i.i23
  %7 = load i8, ptr %arrayidx.i.i24, align 1
  %arrayidx1.i.i.i25 = getelementptr inbounds i8, ptr %arrayidx.i.i24, i64 1
  %8 = load i8, ptr %arrayidx1.i.i.i25, align 1
  store i8 %8, ptr %arrayidx.i.i24, align 1
  store i8 %7, ptr %arrayidx1.i.i.i25, align 1
  %indvars.iv.next.i.i26 = add nuw nsw i64 %indvars.iv.i.i23, 1
  %exitcond.not.i.i27 = icmp eq i64 %indvars.iv.next.i.i26, %wide.trip.count.i.i21
  br i1 %exitcond.not.i.i27, label %sw.epilog, label %for.body.i.i22, !llvm.loop !7

sw.default:                                       ; preds = %entry
  %9 = and i64 %size, 17179869180
  %cmp3.not.i.i29 = icmp eq i64 %9, 0
  br i1 %cmp3.not.i.i29, label %sw.epilog, label %for.body.preheader.i.i30

for.body.preheader.i.i30:                         ; preds = %sw.default
  %div710 = lshr i64 %size, 2
  %wide.trip.count.i.i31 = and i64 %div710, 4294967295
  br label %for.body.i.i32

for.body.i.i32:                                   ; preds = %_ZN3dpx9SwapBytesIjEET_RS1_.exit.i.i44, %for.body.preheader.i.i30
  %indvars.iv.i.i33 = phi i64 [ 0, %for.body.preheader.i.i30 ], [ %indvars.iv.next.i.i45, %_ZN3dpx9SwapBytesIjEET_RS1_.exit.i.i44 ]
  %arrayidx.i.i34 = getelementptr inbounds i32, ptr %buf, i64 %indvars.iv.i.i33
  %add.ptr1.i.i.i35 = getelementptr inbounds i8, ptr %arrayidx.i.i34, i64 3
  br label %for.body.i.i.i36

for.body.i.i.i36:                                 ; preds = %for.body.i.i.i36, %for.body.i.i32
  %i.011.i.i.i37 = phi i64 [ 2, %for.body.i.i32 ], [ %dec.i.i.i42, %for.body.i.i.i36 ]
  %pe.010.i.i.i38 = phi ptr [ %add.ptr1.i.i.i35, %for.body.i.i32 ], [ %incdec.ptr2.i.i.i41, %for.body.i.i.i36 ]
  %ps.09.i.i.i39 = phi ptr [ %arrayidx.i.i34, %for.body.i.i32 ], [ %incdec.ptr.i.i.i40, %for.body.i.i.i36 ]
  %10 = load i8, ptr %ps.09.i.i.i39, align 1
  %11 = load i8, ptr %pe.010.i.i.i38, align 1
  store i8 %11, ptr %ps.09.i.i.i39, align 1
  store i8 %10, ptr %pe.010.i.i.i38, align 1
  %incdec.ptr.i.i.i40 = getelementptr inbounds i8, ptr %ps.09.i.i.i39, i64 1
  %incdec.ptr2.i.i.i41 = getelementptr inbounds i8, ptr %pe.010.i.i.i38, i64 -1
  %dec.i.i.i42 = add nsw i64 %i.011.i.i.i37, -1
  %cmp.not.i.i.i43 = icmp eq i64 %dec.i.i.i42, 0
  br i1 %cmp.not.i.i.i43, label %_ZN3dpx9SwapBytesIjEET_RS1_.exit.i.i44, label %for.body.i.i.i36, !llvm.loop !4

_ZN3dpx9SwapBytesIjEET_RS1_.exit.i.i44:           ; preds = %for.body.i.i.i36
  %indvars.iv.next.i.i45 = add nuw nsw i64 %indvars.iv.i.i33, 1
  %exitcond.not.i.i46 = icmp eq i64 %indvars.iv.next.i.i45, %wide.trip.count.i.i31
  br i1 %exitcond.not.i.i46, label %sw.epilog, label %for.body.i.i32, !llvm.loop !6

sw.epilog:                                        ; preds = %for.body.i.i22, %for.body.i.i14, %_ZN3dpx9SwapBytesIjEET_RS1_.exit.i.i, %_ZN3dpx9SwapBytesIjEET_RS1_.exit.i.i44, %sw.default, %sw.bb4, %if.else, %if.then, %entry
  ret void
}